; Function Attrs: mustprogress uwtable
define dso_local void @_ZN24FunctionInvocationBinaryC2E10eBinaryOpsPK10ExpressionS3_PK11SafeOpFlags(ptr noundef nonnull align 8 dereferenceable(128) %0, i32 noundef %1, ptr noundef %2, ptr noundef %3, ptr noundef %4) unnamed_addr #4 align 2 personality ptr @__gxx_personality_v0 {
  tail call void @_ZN18FunctionInvocationC2E15eInvocationTypePK11SafeOpFlags(ptr noundef nonnull align 8 dereferenceable(56) %0, i32 noundef 0, ptr noundef %4)
  store ptr getelementptr inbounds ({ [15 x ptr] }, ptr @_ZTV24FunctionInvocationBinary, i64 0, i32 0, i64 2), ptr %0, align 8
  %6 = getelementptr inbounds i8, ptr %0, i64 56
  store i32 %1, ptr %6, align 8
  %7 = getelementptr inbounds i8, ptr %0, i64 64
  tail call void @_ZNSt7__cxx1112basic_stringIcSt11char_traitsIcESaIcEEC1Ev(ptr noundef nonnull align 8 dereferenceable(32) %7) #15
  %8 = getelementptr inbounds i8, ptr %0, i64 96
  tail call void @_ZNSt7__cxx1112basic_stringIcSt11char_traitsIcESaIcEEC1Ev(ptr noundef nonnull align 8 dereferenceable(32) %8) #15
  %9 = getelementptr inbounds i8, ptr %0, i64 16
  %10 = load ptr, ptr %9, align 8
  %11 = getelementptr inbounds i8, ptr %0, i64 24
  %12 = load ptr, ptr %11, align 8
  %.not.i.i = icmp eq ptr %12, %10
  br i1 %.not.i.i, label %_ZNSt6vectorIPK10ExpressionSaIS2_EE5clearEv.exit, label %13

13:                                               ; preds = %5
  store ptr %10, ptr %11, align 8
  br label %_ZNSt6vectorIPK10ExpressionSaIS2_EE5clearEv.exit

_ZNSt6vectorIPK10ExpressionSaIS2_EE5clearEv.exit: ; preds = %5, %13
  invoke void @_ZN18FunctionInvocation11add_operandEPK10Expression(ptr noundef nonnull align 8 dereferenceable(56) %0, ptr noundef %2)
          to label %14 unwind label %16

14:                                               ; preds = %_ZNSt6vectorIPK10ExpressionSaIS2_EE5clearEv.exit
  invoke void @_ZN18FunctionInvocation11add_operandEPK10Expression(ptr noundef nonnull align 8 dereferenceable(56) %0, ptr noundef %3)
          to label %15 unwind label %16

15:                                               ; preds = %14
  ret void

16:                                               ; preds = %14, %_ZNSt6vectorIPK10ExpressionSaIS2_EE5clearEv.exit
  %17 = landingpad { ptr, i32 }
          cleanup
  tail call void @_ZNSt7__cxx1112basic_stringIcSt11char_traitsIcESaIcEED1Ev(ptr noundef nonnull align 8 dereferenceable(32) %8) #15
  tail call void @_ZNSt7__cxx1112basic_stringIcSt11char_traitsIcESaIcEED1Ev(ptr noundef nonnull align 8 dereferenceable(32) %7) #15
  tail call void @_ZN18FunctionInvocationD2Ev(ptr noundef nonnull align 8 dereferenceable(56) %0) #15
  resume { ptr, i32 } %17
}